; Function Attrs: mustprogress nounwind uwtable
define dso_local void @_ZN5clang11DeclContext18collectAllContextsERN4llvm15SmallVectorImplIPS0_EE(ptr noundef nonnull align 8 dereferenceable(32) %0, ptr noundef nonnull align 8 dereferenceable(16) %1) local_unnamed_addr #0 align 2 {
  %3 = tail call noundef i64 @_ZNK4llvm15SmallVectorBaseIjE4sizeEv(ptr noundef nonnull align 8 dereferenceable(16) %1) #27
  %4 = getelementptr inbounds nuw i8, ptr %1, i64 8
  store i32 0, ptr %4, align 8
  %5 = getelementptr inbounds nuw i8, ptr %0, i64 8
  %6 = load i16, ptr %5, align 8
  %7 = and i16 %6, 127
  switch i16 %7, label %12 [
    i16 0, label %8
    i16 21, label %10
  ]

8:                                                ; preds = %2
  %9 = getelementptr inbounds i8, ptr %0, i64 -40
  tail call void @_Z22collectAllContextsImplIN5clang19TranslationUnitDeclEEvPT_RN4llvm15SmallVectorImplIPNS0_11DeclContextEEE(ptr noundef nonnull %9, ptr noundef nonnull align 8 dereferenceable(16) %1)
  br label %24

10:                                               ; preds = %2
  %11 = getelementptr inbounds i8, ptr %0, i64 -48
  tail call void @_Z22collectAllContextsImplIN5clang13NamespaceDeclEEvPT_RN4llvm15SmallVectorImplIPNS0_11DeclContextEEE(ptr noundef nonnull %11, ptr noundef nonnull align 8 dereferenceable(16) %1)
  br label %24

12:                                               ; preds = %2
  %13 = tail call noundef i64 @_ZNK4llvm15SmallVectorBaseIjE4sizeEv(ptr noundef nonnull align 8 dereferenceable(16) %1) #27
  %14 = add i64 %13, 1
  %15 = tail call noundef i64 @_ZNK4llvm15SmallVectorBaseIjE8capacityEv(ptr noundef nonnull align 8 dereferenceable(16) %1) #27
  %.not.i.i.i = icmp ugt i64 %14, %15
  br i1 %.not.i.i.i, label %16, label %_ZN4llvm23SmallVectorTemplateBaseIPN5clang11DeclContextELb1EE9push_backES3_.exit

16:                                               ; preds = %12
  %17 = getelementptr inbounds i8, ptr %1, i64 16
  tail call void @_ZN4llvm15SmallVectorBaseIjE8grow_podEPvmm(ptr noundef nonnull align 8 dereferenceable(16) %1, ptr noundef nonnull %17, i64 noundef %14, i64 noundef 8) #27
  br label %_ZN4llvm23SmallVectorTemplateBaseIPN5clang11DeclContextELb1EE9push_backES3_.exit

_ZN4llvm23SmallVectorTemplateBaseIPN5clang11DeclContextELb1EE9push_backES3_.exit: ; preds = %12, %16
  %18 = load ptr, ptr %1, align 8
  %19 = tail call noundef i64 @_ZNK4llvm15SmallVectorBaseIjE4sizeEv(ptr noundef nonnull align 8 dereferenceable(16) %1) #27
  %20 = getelementptr inbounds ptr, ptr %18, i64 %19
  %21 = ptrtoint ptr %0 to i64
  store i64 %21, ptr %20, align 1
  %22 = tail call noundef i64 @_ZNK4llvm15SmallVectorBaseIjE4sizeEv(ptr noundef nonnull align 8 dereferenceable(16) %1) #27
  %23 = add i64 %22, 1
  tail call void @_ZN4llvm15SmallVectorBaseIjE8set_sizeEm(ptr noundef nonnull align 8 dereferenceable(16) %1, i64 noundef %23) #27
  br label %24

24:                                               ; preds = %10, %_ZN4llvm23SmallVectorTemplateBaseIPN5clang11DeclContextELb1EE9push_backES3_.exit, %8
  ret void
}